(lp0
S'poi'
p1
aS'total_payments'
p2
aS'exercised_stock_options'
p3
aS'restricted_stock'
p4
aS'from_poi_to_this_person'
p5
aS'to_messages'
p6
aS'from_messages'
p7
aS'from_this_person_to_poi'
p8
aS'shared_receipt_with_poi'
p9
a.